#include <math.h>
#include <stdio.h>
#include <stdlib.h>
#include <string.h>

int main(){
    int n,k;
    scanf("%d%d",&n,&k);
    int sz[n];
    for(int i=0;i<n;i++){
        scanf("%d",&(sz[i]));
    }
    for(int a=1;a<n;a++){
        for(int i=0;i<n&&i!=(n-a);i++){
            if(((sz[i])+(sz[n-a]))==k){
                printf("yes");
                return 0;}
        else if(a==n-1&&((sz[i])+(sz[n-a]))!=k){
         printf("no"); 
         return 0;
        }}}
}



