; ModuleID = '3/2896.c'
source_filename = "3/2896.c"
target datalayout = "e-m:e-p270:32:32-p271:32:32-p272:64:64-i64:64-f80:128-n8:16:32:64-S128"
target triple = "x86_64-pc-linux-gnu"

@.str = private unnamed_addr constant [5 x i8] c"%d%d\00", align 1
@.str.1 = private unnamed_addr constant [3 x i8] c"%d\00", align 1
@.str.2 = private unnamed_addr constant [4 x i8] c"yes\00", align 1
@.str.3 = private unnamed_addr constant [3 x i8] c"no\00", align 1

; Function Attrs: noinline nounwind uwtable
define dso_local i32 @main() #0 {
  %1 = alloca i32, align 4
  %2 = alloca i32, align 4
  %3 = alloca i32, align 4
  %4 = alloca i8*, align 8
  %5 = alloca i64, align 8
  %6 = alloca i32, align 4
  %7 = alloca i32, align 4
  %8 = alloca i32, align 4
  %9 = alloca i32, align 4
  store i32 0, i32* %1, align 4
  %10 = call i32 (i8*, ...) @__isoc99_scanf(i8* getelementptr inbounds ([5 x i8], [5 x i8]* @.str, i64 0, i64 0), i32* %2, i32* %3)
  %11 = load i32, i32* %2, align 4
  %12 = zext i32 %11 to i64
  %13 = call i8* @llvm.stacksave()
  store i8* %13, i8** %4, align 8
  %14 = alloca i32, i64 %12, align 16
  store i64 %12, i64* %5, align 8
  store i32 0, i32* %6, align 4
  br label %15

15:                                               ; preds = %24, %0
  %16 = load i32, i32* %6, align 4
  %17 = load i32, i32* %2, align 4
  %18 = icmp slt i32 %16, %17
  br i1 %18, label %19, label %27

19:                                               ; preds = %15
  %20 = load i32, i32* %6, align 4
  %21 = sext i32 %20 to i64
  %22 = getelementptr inbounds i32, i32* %14, i64 %21
  %23 = call i32 (i8*, ...) @__isoc99_scanf(i8* getelementptr inbounds ([3 x i8], [3 x i8]* @.str.1, i64 0, i64 0), i32* %22)
  br label %24

24:                                               ; preds = %19
  %25 = load i32, i32* %6, align 4
  %26 = add nsw i32 %25, 1
  store i32 %26, i32* %6, align 4
  br label %15

27:                                               ; preds = %15
  store i32 1, i32* %7, align 4
  br label %28

28:                                               ; preds = %88, %27
  %29 = load i32, i32* %7, align 4
  %30 = load i32, i32* %2, align 4
  %31 = icmp slt i32 %29, %30
  br i1 %31, label %32, label %91

32:                                               ; preds = %28
  store i32 0, i32* %8, align 4
  br label %33

33:                                               ; preds = %84, %32
  %34 = load i32, i32* %8, align 4
  %35 = load i32, i32* %2, align 4
  %36 = icmp slt i32 %34, %35
  br i1 %36, label %37, label %43

37:                                               ; preds = %33
  %38 = load i32, i32* %8, align 4
  %39 = load i32, i32* %2, align 4
  %40 = load i32, i32* %7, align 4
  %41 = sub nsw i32 %39, %40
  %42 = icmp ne i32 %38, %41
  br label %43

43:                                               ; preds = %37, %33
  %44 = phi i1 [ false, %33 ], [ %42, %37 ]
  br i1 %44, label %45, label %87

45:                                               ; preds = %43
  %46 = load i32, i32* %8, align 4
  %47 = sext i32 %46 to i64
  %48 = getelementptr inbounds i32, i32* %14, i64 %47
  %49 = load i32, i32* %48, align 4
  %50 = load i32, i32* %2, align 4
  %51 = load i32, i32* %7, align 4
  %52 = sub nsw i32 %50, %51
  %53 = sext i32 %52 to i64
  %54 = getelementptr inbounds i32, i32* %14, i64 %53
  %55 = load i32, i32* %54, align 4
  %56 = add nsw i32 %49, %55
  %57 = load i32, i32* %3, align 4
  %58 = icmp eq i32 %56, %57
  br i1 %58, label %59, label %61

59:                                               ; preds = %45
  %60 = call i32 (i8*, ...) @printf(i8* getelementptr inbounds ([4 x i8], [4 x i8]* @.str.2, i64 0, i64 0))
  store i32 0, i32* %1, align 4
  store i32 1, i32* %9, align 4
  br label %92

61:                                               ; preds = %45
  %62 = load i32, i32* %7, align 4
  %63 = load i32, i32* %2, align 4
  %64 = sub nsw i32 %63, 1
  %65 = icmp eq i32 %62, %64
  br i1 %65, label %66, label %82

66:                                               ; preds = %61
  %67 = load i32, i32* %8, align 4
  %68 = sext i32 %67 to i64
  %69 = getelementptr inbounds i32, i32* %14, i64 %68
  %70 = load i32, i32* %69, align 4
  %71 = load i32, i32* %2, align 4
  %72 = load i32, i32* %7, align 4
  %73 = sub nsw i32 %71, %72
  %74 = sext i32 %73 to i64
  %75 = getelementptr inbounds i32, i32* %14, i64 %74
  %76 = load i32, i32* %75, align 4
  %77 = add nsw i32 %70, %76
  %78 = load i32, i32* %3, align 4
  %79 = icmp ne i32 %77, %78
  br i1 %79, label %80, label %82

80:                                               ; preds = %66
  %81 = call i32 (i8*, ...) @printf(i8* getelementptr inbounds ([3 x i8], [3 x i8]* @.str.3, i64 0, i64 0))
  store i32 0, i32* %1, align 4
  store i32 1, i32* %9, align 4
  br label %92

82:                                               ; preds = %66, %61
  br label %83

83:                                               ; preds = %82
  br label %84

84:                                               ; preds = %83
  %85 = load i32, i32* %8, align 4
  %86 = add nsw i32 %85, 1
  store i32 %86, i32* %8, align 4
  br label %33

87:                                               ; preds = %43
  br label %88

88:                                               ; preds = %87
  %89 = load i32, i32* %7, align 4
  %90 = add nsw i32 %89, 1
  store i32 %90, i32* %7, align 4
  br label %28

91:                                               ; preds = %28
  store i32 0, i32* %9, align 4
  br label %92

92:                                               ; preds = %91, %80, %59
  %93 = load i8*, i8** %4, align 8
  call void @llvm.stackrestore(i8* %93)
  %94 = load i32, i32* %9, align 4
  switch i32 %94, label %97 [
    i32 0, label %95
    i32 1, label %95
  ]

95:                                               ; preds = %92, %92
  %96 = load i32, i32* %1, align 4
  ret i32 %96

97:                                               ; preds = %92
  unreachable
}

declare dso_local i32 @__isoc99_scanf(i8*, ...) #1

; Function Attrs: nounwind
declare i8* @llvm.stacksave() #2

declare dso_local i32 @printf(i8*, ...) #1

; Function Attrs: nounwind
declare void @llvm.stackrestore(i8*) #2


!llvm.module.flags = !{!0}
!llvm.ident = !{!1}

!0 = !{i32 1, !"wchar_size", i32 4}
!1 = !{!"clang version 10.0.0-4ubuntu1 "}
